target datalayout = "e-m:e-p270:32:32-p271:32:32-p272:64:64-i64:64-i128:128-f80:128-n8:16:32:64-S128"
target triple = "x86_64-unknown-linux-gnu"

%"class.sat::literal" = type { i32 }
%class.ptr_vector.26 = type { %class.vector.27 }
%class.vector.27 = type { ptr }
%class.ast = type { i32, i24, i32, i32 }
%"class.euf::justification" = type { i32, %union.anon.63, %union.anon.64 }
%union.anon.63 = type { ptr }
%union.anon.64 = type { ptr }
%"class.euf::enode" = type { ptr, i8, i8, i8, i8, i8, i8, i8, i8, i8, i32, i32, i32, i32, i32, i32, %class.ptr_vector.26, ptr, ptr, ptr, ptr, %class.id_var_list, %"class.euf::justification", %"class.euf::justification", i32, i8, %class.approx_set, %class.approx_set, [0 x ptr] }
%class.id_var_list = type { i32, ptr }
%class.approx_set = type { %class.approx_set_tpl.212 }
%class.approx_set_tpl.212 = type { i64 }
%"class.euf::th_explain" = type { %"class.sat::literal", %"struct.std::pair", ptr, i32, i32, ptr, ptr }
%"struct.std::pair" = type { ptr, ptr }

@_ZN3satL12null_literalE = internal global %"class.sat::literal" zeroinitializer, align 4

; Function Attrs: mustprogress nounwind uwtable
define linkonce_odr hidden noundef i32 @_ZNK3ast6get_idEv(ptr noundef nonnull align 4 dereferenceable(16) %this) #4 comdat align 2 {
entry:
  %this.addr = alloca ptr, align 8
  store ptr %this, ptr %this.addr, align 8
  %this1 = load ptr, ptr %this.addr, align 8
  %m_id = getelementptr inbounds %class.ast, ptr %this1, i32 0, i32 0
  %0 = load i32, ptr %m_id, align 4
  ret i32 %0
}

; Function Attrs: mustprogress nounwind uwtable
define linkonce_odr hidden void @_ZSt4swapIPN3euf5enodeEENSt9enable_ifIXsr6__and_ISt6__not_ISt15__is_tuple_likeIT_EESt21is_move_constructibleIS6_ESt18is_move_assignableIS6_EEE5valueEvE4typeERS6_SF_(ptr noundef nonnull align 8 dereferenceable(8) %__a, ptr noundef nonnull align 8 dereferenceable(8) %__b) #4 comdat {
entry:
  %__a.addr = alloca ptr, align 8
  %__b.addr = alloca ptr, align 8
  %__tmp = alloca ptr, align 8
  store ptr %__a, ptr %__a.addr, align 8
  store ptr %__b, ptr %__b.addr, align 8
  %0 = load ptr, ptr %__a.addr, align 8
  %1 = load ptr, ptr %0, align 8
  store ptr %1, ptr %__tmp, align 8
  %2 = load ptr, ptr %__b.addr, align 8
  %3 = load ptr, ptr %2, align 8
  %4 = load ptr, ptr %__a.addr, align 8
  store ptr %3, ptr %4, align 8
  %5 = load ptr, ptr %__tmp, align 8
  %6 = load ptr, ptr %__b.addr, align 8
  store ptr %5, ptr %6, align 8
  ret void
}

; Function Attrs: mustprogress nounwind uwtable
define linkonce_odr hidden noundef i32 @_ZNK3euf5enode6get_idEv(ptr noundef nonnull align 8 dereferenceable(176) %this) #4 comdat align 2 {
entry:
  %this.addr = alloca ptr, align 8
  store ptr %this, ptr %this.addr, align 8
  %this1 = load ptr, ptr %this.addr, align 8
  %m_expr = getelementptr inbounds %"class.euf::enode", ptr %this1, i32 0, i32 0
  %0 = load ptr, ptr %m_expr, align 8
  %call = call noundef i32 @_ZNK3ast6get_idEv(ptr noundef nonnull align 4 dereferenceable(16) %0)
  ret i32 %call
}

; Function Attrs: mustprogress nounwind uwtable
define linkonce_odr hidden noundef nonnull align 8 dereferenceable(16) ptr @_ZNSt4pairIPN3euf5enodeES2_EaSERKS3_(ptr noundef nonnull align 8 dereferenceable(16) %this, ptr noundef nonnull align 8 dereferenceable(16) %__p) #4 comdat align 2 {
entry:
  %this.addr = alloca ptr, align 8
  %__p.addr = alloca ptr, align 8
  store ptr %this, ptr %this.addr, align 8
  store ptr %__p, ptr %__p.addr, align 8
  %this1 = load ptr, ptr %this.addr, align 8
  %0 = load ptr, ptr %__p.addr, align 8
  %first = getelementptr inbounds %"struct.std::pair", ptr %0, i32 0, i32 0
  %1 = load ptr, ptr %first, align 8
  %first2 = getelementptr inbounds %"struct.std::pair", ptr %this1, i32 0, i32 0
  store ptr %1, ptr %first2, align 8
  %2 = load ptr, ptr %__p.addr, align 8
  %second = getelementptr inbounds %"struct.std::pair", ptr %2, i32 0, i32 1
  %3 = load ptr, ptr %second, align 8
  %second3 = getelementptr inbounds %"struct.std::pair", ptr %this1, i32 0, i32 1
  store ptr %3, ptr %second3, align 8
  ret ptr %this1
}

; Function Attrs: mustprogress nounwind uwtable
define linkonce_odr hidden void @_ZNSt4pairIPN3euf5enodeES2_EC2IS2_S2_TnNSt9enable_ifIXsr6__and_ISt37__is_implicitly_default_constructibleIT_ES6_IT0_EEE5valueEbE4typeELb1EEEv(ptr noundef nonnull align 8 dereferenceable(16) %this) unnamed_addr #4 comdat align 2 {
entry:
  %this.addr = alloca ptr, align 8
  store ptr %this, ptr %this.addr, align 8
  %this1 = load ptr, ptr %this.addr, align 8
  %first = getelementptr inbounds %"struct.std::pair", ptr %this1, i32 0, i32 0
  store ptr null, ptr %first, align 8
  %second = getelementptr inbounds %"struct.std::pair", ptr %this1, i32 0, i32 1
  store ptr null, ptr %second, align 8
  ret void
}

; Function Attrs: mustprogress uwtable
define hidden void @_ZN3euf10th_explainC2EjPKN3sat7literalEjPKSt4pairIPNS_5enodeES7_ES2_RS9_PKNS_13th_proof_hintE(ptr noundef nonnull align 8 dereferenceable(56) %this, i32 noundef %n_lits, ptr noundef %lits, i32 noundef %n_eqs, ptr noundef %eqs, i32 %c.coerce, ptr noundef nonnull align 8 dereferenceable(16) %p, ptr noundef %pma) unnamed_addr #5 align 2 {
entry:
  %c = alloca %"class.sat::literal", align 4
  %this.addr = alloca ptr, align 8
  %n_lits.addr = alloca i32, align 4
  %lits.addr = alloca ptr, align 8
  %n_eqs.addr = alloca i32, align 4
  %eqs.addr = alloca ptr, align 8
  %p.addr = alloca ptr, align 8
  %pma.addr = alloca ptr, align 8
  %base_ptr = alloca ptr, align 8
  %i = alloca i32, align 4
  %coerce.dive = getelementptr inbounds %"class.sat::literal", ptr %c, i32 0, i32 0
  store i32 %c.coerce, ptr %coerce.dive, align 4
  store ptr %this, ptr %this.addr, align 8
  store i32 %n_lits, ptr %n_lits.addr, align 4
  store ptr %lits, ptr %lits.addr, align 8
  store i32 %n_eqs, ptr %n_eqs.addr, align 4
  store ptr %eqs, ptr %eqs.addr, align 8
  store ptr %p, ptr %p.addr, align 8
  store ptr %pma, ptr %pma.addr, align 8
  %this1 = load ptr, ptr %this.addr, align 8
  %m_consequent = getelementptr inbounds %"class.euf::th_explain", ptr %this1, i32 0, i32 0
  call void @llvm.memcpy.p0.p0.i64(ptr align 8 %m_consequent, ptr align 4 @_ZN3satL12null_literalE, i64 4, i1 false)
  %m_eq = getelementptr inbounds %"class.euf::th_explain", ptr %this1, i32 0, i32 1
  call void @_ZNSt4pairIPN3euf5enodeES2_EC2IS2_S2_TnNSt9enable_ifIXsr6__and_ISt37__is_implicitly_default_constructibleIT_ES6_IT0_EEE5valueEbE4typeELb1EEEv(ptr noundef nonnull align 8 dereferenceable(16) %m_eq)
  %m_consequent2 = getelementptr inbounds %"class.euf::th_explain", ptr %this1, i32 0, i32 0
  call void @llvm.memcpy.p0.p0.i64(ptr align 8 %m_consequent2, ptr align 4 %c, i64 4, i1 false)
  %0 = load ptr, ptr %p.addr, align 8
  %m_eq3 = getelementptr inbounds %"class.euf::th_explain", ptr %this1, i32 0, i32 1
  %call = call noundef nonnull align 8 dereferenceable(16) ptr @_ZNSt4pairIPN3euf5enodeES2_EaSERKS3_(ptr noundef nonnull align 8 dereferenceable(16) %m_eq3, ptr noundef nonnull align 8 dereferenceable(16) %0)
  %m_eq4 = getelementptr inbounds %"class.euf::th_explain", ptr %this1, i32 0, i32 1
  %first = getelementptr inbounds %"struct.std::pair", ptr %m_eq4, i32 0, i32 0
  %1 = load ptr, ptr %first, align 8
  %tobool = icmp ne ptr %1, null
  br i1 %tobool, label %land.lhs.true, label %if.end

land.lhs.true:                                    ; preds = %entry
  %m_eq5 = getelementptr inbounds %"class.euf::th_explain", ptr %this1, i32 0, i32 1
  %first6 = getelementptr inbounds %"struct.std::pair", ptr %m_eq5, i32 0, i32 0
  %2 = load ptr, ptr %first6, align 8
  %call7 = call noundef i32 @_ZNK3euf5enode6get_idEv(ptr noundef nonnull align 8 dereferenceable(176) %2)
  %m_eq8 = getelementptr inbounds %"class.euf::th_explain", ptr %this1, i32 0, i32 1
  %second = getelementptr inbounds %"struct.std::pair", ptr %m_eq8, i32 0, i32 1
  %3 = load ptr, ptr %second, align 8
  %call9 = call noundef i32 @_ZNK3euf5enode6get_idEv(ptr noundef nonnull align 8 dereferenceable(176) %3)
  %cmp = icmp ugt i32 %call7, %call9
  br i1 %cmp, label %if.then, label %if.end

if.then:                                          ; preds = %land.lhs.true
  %m_eq10 = getelementptr inbounds %"class.euf::th_explain", ptr %this1, i32 0, i32 1
  %first11 = getelementptr inbounds %"struct.std::pair", ptr %m_eq10, i32 0, i32 0
  %m_eq12 = getelementptr inbounds %"class.euf::th_explain", ptr %this1, i32 0, i32 1
  %second13 = getelementptr inbounds %"struct.std::pair", ptr %m_eq12, i32 0, i32 1
  call void @_ZSt4swapIPN3euf5enodeEENSt9enable_ifIXsr6__and_ISt6__not_ISt15__is_tuple_likeIT_EESt21is_move_constructibleIS6_ESt18is_move_assignableIS6_EEE5valueEvE4typeERS6_SF_(ptr noundef nonnull align 8 dereferenceable(8) %first11, ptr noundef nonnull align 8 dereferenceable(8) %second13) #3
  br label %if.end

if.end:                                           ; preds = %if.then, %land.lhs.true, %entry
  %4 = load ptr, ptr %pma.addr, align 8
  %m_proof_hint = getelementptr inbounds %"class.euf::th_explain", ptr %this1, i32 0, i32 2
  store ptr %4, ptr %m_proof_hint, align 8
  %5 = load i32, ptr %n_lits.addr, align 4
  %m_num_literals = getelementptr inbounds %"class.euf::th_explain", ptr %this1, i32 0, i32 3
  store i32 %5, ptr %m_num_literals, align 8
  %6 = load i32, ptr %n_eqs.addr, align 4
  %m_num_eqs = getelementptr inbounds %"class.euf::th_explain", ptr %this1, i32 0, i32 4
  store i32 %6, ptr %m_num_eqs, align 4
  %add.ptr = getelementptr inbounds i8, ptr %this1, i64 56
  store ptr %add.ptr, ptr %base_ptr, align 8
  %7 = load ptr, ptr %base_ptr, align 8
  %m_literals = getelementptr inbounds %"class.euf::th_explain", ptr %this1, i32 0, i32 5
  store ptr %7, ptr %m_literals, align 8
  store i32 0, ptr %i, align 4
  br label %for.cond

for.cond:                                         ; preds = %for.inc, %if.end
  %8 = load i32, ptr %i, align 4
  %9 = load i32, ptr %n_lits.addr, align 4
  %cmp14 = icmp ult i32 %8, %9
  br i1 %cmp14, label %for.body, label %for.end

for.body:                                         ; preds = %for.cond
  %10 = load ptr, ptr %lits.addr, align 8
  %11 = load i32, ptr %i, align 4
  %idxprom = zext i32 %11 to i64
  %arrayidx = getelementptr inbounds %"class.sat::literal", ptr %10, i64 %idxprom
  %m_literals15 = getelementptr inbounds %"class.euf::th_explain", ptr %this1, i32 0, i32 5
  %12 = load ptr, ptr %m_literals15, align 8
  %13 = load i32, ptr %i, align 4
  %idxprom16 = zext i32 %13 to i64
  %arrayidx17 = getelementptr inbounds %"class.sat::literal", ptr %12, i64 %idxprom16
  call void @llvm.memcpy.p0.p0.i64(ptr align 4 %arrayidx17, ptr align 4 %arrayidx, i64 4, i1 false)
  br label %for.inc

for.inc:                                          ; preds = %for.body
  %14 = load i32, ptr %i, align 4
  %inc = add i32 %14, 1
  store i32 %inc, ptr %i, align 4
  br label %for.cond, !llvm.loop !9

for.end:                                          ; preds = %for.cond
  %15 = load i32, ptr %n_lits.addr, align 4
  %conv = zext i32 %15 to i64
  %mul = mul i64 4, %conv
  %16 = load ptr, ptr %base_ptr, align 8
  %add.ptr18 = getelementptr inbounds i8, ptr %16, i64 %mul
  store ptr %add.ptr18, ptr %base_ptr, align 8
  %17 = load ptr, ptr %base_ptr, align 8
  %m_eqs = getelementptr inbounds %"class.euf::th_explain", ptr %this1, i32 0, i32 6
  store ptr %17, ptr %m_eqs, align 8
  store i32 0, ptr %i, align 4
  br label %for.cond19

for.cond19:                                       ; preds = %for.inc49, %for.end
  %18 = load i32, ptr %i, align 4
  %19 = load i32, ptr %n_eqs.addr, align 4
  %cmp20 = icmp ult i32 %18, %19
  br i1 %cmp20, label %for.body21, label %for.end51

for.body21:                                       ; preds = %for.cond19
  %20 = load ptr, ptr %eqs.addr, align 8
  %21 = load i32, ptr %i, align 4
  %idxprom22 = zext i32 %21 to i64
  %arrayidx23 = getelementptr inbounds %"struct.std::pair", ptr %20, i64 %idxprom22
  %m_eqs24 = getelementptr inbounds %"class.euf::th_explain", ptr %this1, i32 0, i32 6
  %22 = load ptr, ptr %m_eqs24, align 8
  %23 = load i32, ptr %i, align 4
  %idxprom25 = zext i32 %23 to i64
  %arrayidx26 = getelementptr inbounds %"struct.std::pair", ptr %22, i64 %idxprom25
  %call27 = call noundef nonnull align 8 dereferenceable(16) ptr @_ZNSt4pairIPN3euf5enodeES2_EaSERKS3_(ptr noundef nonnull align 8 dereferenceable(16) %arrayidx26, ptr noundef nonnull align 8 dereferenceable(16) %arrayidx23)
  %m_eqs28 = getelementptr inbounds %"class.euf::th_explain", ptr %this1, i32 0, i32 6
  %24 = load ptr, ptr %m_eqs28, align 8
  %25 = load i32, ptr %i, align 4
  %idxprom29 = zext i32 %25 to i64
  %arrayidx30 = getelementptr inbounds %"struct.std::pair", ptr %24, i64 %idxprom29
  %first31 = getelementptr inbounds %"struct.std::pair", ptr %arrayidx30, i32 0, i32 0
  %26 = load ptr, ptr %first31, align 8
  %call32 = call noundef i32 @_ZNK3euf5enode6get_idEv(ptr noundef nonnull align 8 dereferenceable(176) %26)
  %m_eqs33 = getelementptr inbounds %"class.euf::th_explain", ptr %this1, i32 0, i32 6
  %27 = load ptr, ptr %m_eqs33, align 8
  %28 = load i32, ptr %i, align 4
  %idxprom34 = zext i32 %28 to i64
  %arrayidx35 = getelementptr inbounds %"struct.std::pair", ptr %27, i64 %idxprom34
  %second36 = getelementptr inbounds %"struct.std::pair", ptr %arrayidx35, i32 0, i32 1
  %29 = load ptr, ptr %second36, align 8
  %call37 = call noundef i32 @_ZNK3euf5enode6get_idEv(ptr noundef nonnull align 8 dereferenceable(176) %29)
  %cmp38 = icmp ugt i32 %call32, %call37
  br i1 %cmp38, label %if.then39, label %if.end48

if.then39:                                        ; preds = %for.body21
  %m_eqs40 = getelementptr inbounds %"class.euf::th_explain", ptr %this1, i32 0, i32 6
  %30 = load ptr, ptr %m_eqs40, align 8
  %31 = load i32, ptr %i, align 4
  %idxprom41 = zext i32 %31 to i64
  %arrayidx42 = getelementptr inbounds %"struct.std::pair", ptr %30, i64 %idxprom41
  %first43 = getelementptr inbounds %"struct.std::pair", ptr %arrayidx42, i32 0, i32 0
  %m_eqs44 = getelementptr inbounds %"class.euf::th_explain", ptr %this1, i32 0, i32 6
  %32 = load ptr, ptr %m_eqs44, align 8
  %33 = load i32, ptr %i, align 4
  %idxprom45 = zext i32 %33 to i64
  %arrayidx46 = getelementptr inbounds %"struct.std::pair", ptr %32, i64 %idxprom45
  %second47 = getelementptr inbounds %"struct.std::pair", ptr %arrayidx46, i32 0, i32 1
  call void @_ZSt4swapIPN3euf5enodeEENSt9enable_ifIXsr6__and_ISt6__not_ISt15__is_tuple_likeIT_EESt21is_move_constructibleIS6_ESt18is_move_assignableIS6_EEE5valueEvE4typeERS6_SF_(ptr noundef nonnull align 8 dereferenceable(8) %first43, ptr noundef nonnull align 8 dereferenceable(8) %second47) #3
  br label %if.end48

if.end48:                                         ; preds = %if.then39, %for.body21
  br label %for.inc49

for.inc49:                                        ; preds = %if.end48
  %34 = load i32, ptr %i, align 4
  %inc50 = add i32 %34, 1
  store i32 %inc50, ptr %i, align 4
  br label %for.cond19, !llvm.loop !10

for.end51:                                        ; preds = %for.cond19
  ret void
}