; Function Attrs: mustprogress nofree norecurse nosync nounwind memory(readwrite, inaccessiblemem: none) uwtable
define hidden void @_ZN3euf10th_explainC2EjPKN3sat7literalEjPKSt4pairIPNS_5enodeES7_ES2_RS9_PKNS_13th_proof_hintE(ptr noundef nonnull align 8 dereferenceable(56) %this, i32 noundef %n_lits, ptr nocapture noundef readonly %lits, i32 noundef %n_eqs, ptr nocapture noundef readonly %eqs, i32 %c.coerce, ptr nocapture noundef nonnull readonly align 8 dereferenceable(16) %p, ptr noundef %pma) unnamed_addr #11 align 2 {
entry:
  %m_eq = getelementptr inbounds i8, ptr %this, i64 8
  tail call void @llvm.memset.p0.i64(ptr noundef nonnull align 8 dereferenceable(16) %m_eq, i8 0, i64 16, i1 false)
  store i32 %c.coerce, ptr %this, align 8
  %0 = load ptr, ptr %p, align 8
  store ptr %0, ptr %m_eq, align 8
  %second.i = getelementptr inbounds i8, ptr %p, i64 8
  %1 = load ptr, ptr %second.i, align 8
  %second3.i = getelementptr inbounds i8, ptr %this, i64 16
  store ptr %1, ptr %second3.i, align 8
  %tobool.not = icmp eq ptr %0, null
  br i1 %tobool.not, label %if.end, label %land.lhs.true

land.lhs.true:                                    ; preds = %entry
  %2 = load ptr, ptr %0, align 8
  %3 = load i32, ptr %2, align 4
  %4 = load ptr, ptr %1, align 8
  %5 = load i32, ptr %4, align 4
  %cmp = icmp ugt i32 %3, %5
  br i1 %cmp, label %if.then, label %if.end

if.then:                                          ; preds = %land.lhs.true
  store ptr %1, ptr %m_eq, align 8
  store ptr %0, ptr %second3.i, align 8
  br label %if.end

if.end:                                           ; preds = %if.then, %land.lhs.true, %entry
  %m_proof_hint = getelementptr inbounds i8, ptr %this, i64 24
  store ptr %pma, ptr %m_proof_hint, align 8
  %m_num_literals = getelementptr inbounds i8, ptr %this, i64 32
  store i32 %n_lits, ptr %m_num_literals, align 8
  %m_num_eqs = getelementptr inbounds i8, ptr %this, i64 36
  store i32 %n_eqs, ptr %m_num_eqs, align 4
  %add.ptr = getelementptr inbounds i8, ptr %this, i64 56
  %m_literals = getelementptr inbounds i8, ptr %this, i64 40
  store ptr %add.ptr, ptr %m_literals, align 8
  %cmp1419.not = icmp eq i32 %n_lits, 0
  br i1 %cmp1419.not, label %for.end, label %for.body.preheader

for.body.preheader:                               ; preds = %if.end
  %wide.trip.count = zext i32 %n_lits to i64
  br label %for.body

for.body:                                         ; preds = %for.body.preheader, %for.body
  %indvars.iv = phi i64 [ 0, %for.body.preheader ], [ %indvars.iv.next, %for.body ]
  %arrayidx = getelementptr inbounds %"class.sat::literal", ptr %lits, i64 %indvars.iv
  %6 = load ptr, ptr %m_literals, align 8
  %arrayidx17 = getelementptr inbounds %"class.sat::literal", ptr %6, i64 %indvars.iv
  %7 = load i32, ptr %arrayidx, align 4
  store i32 %7, ptr %arrayidx17, align 4
  %indvars.iv.next = add nuw nsw i64 %indvars.iv, 1
  %exitcond.not = icmp eq i64 %indvars.iv.next, %wide.trip.count
  br i1 %exitcond.not, label %for.end.loopexit, label %for.body, !llvm.loop !29

for.end.loopexit:                                 ; preds = %for.body
  %8 = shl nuw nsw i64 %wide.trip.count, 2
  br label %for.end

for.end:                                          ; preds = %for.end.loopexit, %if.end
  %conv.pre-phi = phi i64 [ 0, %if.end ], [ %8, %for.end.loopexit ]
  %add.ptr18 = getelementptr inbounds i8, ptr %add.ptr, i64 %conv.pre-phi
  %m_eqs = getelementptr inbounds i8, ptr %this, i64 48
  store ptr %add.ptr18, ptr %m_eqs, align 8
  %cmp2021.not = icmp eq i32 %n_eqs, 0
  br i1 %cmp2021.not, label %for.end51, label %for.body21.preheader

for.body21.preheader:                             ; preds = %for.end
  %wide.trip.count27 = zext i32 %n_eqs to i64
  br label %for.body21

for.body21:                                       ; preds = %for.body21.preheader, %for.inc49
  %indvars.iv24 = phi i64 [ 0, %for.body21.preheader ], [ %indvars.iv.next25, %for.inc49 ]
  %arrayidx23 = getelementptr inbounds %"struct.std::pair", ptr %eqs, i64 %indvars.iv24
  %9 = load ptr, ptr %m_eqs, align 8
  %arrayidx26 = getelementptr inbounds %"struct.std::pair", ptr %9, i64 %indvars.iv24
  %10 = load ptr, ptr %arrayidx23, align 8
  store ptr %10, ptr %arrayidx26, align 8
  %second.i17 = getelementptr inbounds i8, ptr %arrayidx23, i64 8
  %11 = load ptr, ptr %second.i17, align 8
  %second3.i18 = getelementptr inbounds i8, ptr %arrayidx26, i64 8
  store ptr %11, ptr %second3.i18, align 8
  %12 = load ptr, ptr %m_eqs, align 8
  %arrayidx30 = getelementptr inbounds %"struct.std::pair", ptr %12, i64 %indvars.iv24
  %13 = load ptr, ptr %arrayidx30, align 8
  %14 = load ptr, ptr %13, align 8
  %15 = load i32, ptr %14, align 4
  %second36 = getelementptr inbounds %"struct.std::pair", ptr %12, i64 %indvars.iv24, i32 1
  %16 = load ptr, ptr %second36, align 8
  %17 = load ptr, ptr %16, align 8
  %18 = load i32, ptr %17, align 4
  %cmp38 = icmp ugt i32 %15, %18
  br i1 %cmp38, label %if.then39, label %for.inc49

if.then39:                                        ; preds = %for.body21
  %second47 = getelementptr inbounds i8, ptr %arrayidx30, i64 8
  store ptr %16, ptr %arrayidx30, align 8
  store ptr %13, ptr %second47, align 8
  br label %for.inc49

for.inc49:                                        ; preds = %for.body21, %if.then39
  %indvars.iv.next25 = add nuw nsw i64 %indvars.iv24, 1
  %exitcond28.not = icmp eq i64 %indvars.iv.next25, %wide.trip.count27
  br i1 %exitcond28.not, label %for.end51, label %for.body21, !llvm.loop !30

for.end51:                                        ; preds = %for.inc49, %for.end
  ret void
}